target datalayout = "e-m:e-p270:32:32-p271:32:32-p272:64:64-i64:64-i128:128-f80:128-n8:16:32:64-S128"
target triple = "x86_64-pc-linux-gnu"

%"struct.QListData::Data" = type { %"class.QtPrivate::RefCount", i32, i32, i32, [1 x ptr] }
%"class.QtPrivate::RefCount" = type { %class.QBasicAtomicInteger }
%class.QBasicAtomicInteger = type { %"struct.std::atomic" }
%"struct.std::atomic" = type { %"struct.std::__atomic_base" }
%"struct.std::__atomic_base" = type { i32 }
%class.RadianceScalingRendererPlugin = type { %class.QObject, %class.RenderPlugin.base, i8, %class.QList, ptr, ptr, ptr, ptr, ptr, ptr, ptr, ptr, ptr, ptr, i32, i32, %class.MeshLabPlugin, %class.MeshLabPluginLogger }
%class.QObject = type { ptr, %class.QScopedPointer }
%class.QScopedPointer = type { ptr }
%class.RenderPlugin.base = type { ptr }
%class.QList = type { %union.anon }
%union.anon = type { %struct.QListData }
%struct.QListData = type { ptr }
%class.MeshLabPlugin = type { ptr, i8, %class.QFileInfo }
%class.QFileInfo = type { %class.QSharedDataPointer }
%class.QSharedDataPointer = type { ptr }
%class.MeshLabPluginLogger = type { ptr, ptr }

@_ZN9QListData11shared_nullE = external global %"struct.QListData::Data", align 8
@_ZTV29RadianceScalingRendererPlugin = external unnamed_addr constant { [23 x ptr], [12 x ptr], [11 x ptr], [5 x ptr] }, align 8
@_ZTT29RadianceScalingRendererPlugin = external unnamed_addr constant [7 x ptr], align 8
@_ZTV13MeshLabPlugin = linkonce_odr unnamed_addr constant { [7 x ptr] } { [7 x ptr] [ptr null, ptr @_ZTI13MeshLabPlugin, ptr @_ZN13MeshLabPluginD2Ev, ptr @_ZN13MeshLabPluginD0Ev, ptr @__cxa_pure_virtual, ptr @__cxa_pure_virtual, ptr @_ZNK13MeshLabPlugin6vendorEv] }, comdat, align 8

; Function Attrs: mustprogress nounwind uwtable
define linkonce_odr void @_ZN13MeshLabPluginD2Ev(ptr noundef nonnull align 8 dereferenceable(24) %0) unnamed_addr #4 comdat align 2 {
  %2 = alloca ptr, align 8
  store ptr %0, ptr %2, align 8
  %3 = load ptr, ptr %2, align 8
  store ptr getelementptr inbounds ({ [7 x ptr] }, ptr @_ZTV13MeshLabPlugin, i32 0, i32 0, i32 2), ptr %3, align 8
  %4 = getelementptr inbounds %class.MeshLabPlugin, ptr %3, i32 0, i32 2
  call void @_ZN9QFileInfoD1Ev(ptr noundef nonnull align 8 dereferenceable(8) %4) #3
  ret void
}

; Function Attrs: mustprogress nounwind uwtable
define linkonce_odr void @_ZN19MeshLabPluginLoggerD2Ev(ptr noundef nonnull align 8 dereferenceable(16) %0) unnamed_addr #4 comdat align 2 {
  %2 = alloca ptr, align 8
  store ptr %0, ptr %2, align 8
  ret void
}

; Function Attrs: mustprogress nounwind uwtable
define linkonce_odr void @_ZN5QListIP7QActionEC2Ev(ptr noundef nonnull align 8 dereferenceable(8) %0) unnamed_addr #4 comdat align 2 {
  %2 = alloca ptr, align 8
  store ptr %0, ptr %2, align 8
  %3 = load ptr, ptr %2, align 8
  %4 = getelementptr inbounds %class.QList, ptr %3, i32 0, i32 0
  store ptr @_ZN9QListData11shared_nullE, ptr %4, align 8
  ret void
}

; Function Attrs: mustprogress nounwind uwtable
define linkonce_odr void @_ZN12RenderPluginC2Ev(ptr noundef nonnull align 8 dereferenceable(8) %0, ptr noundef %1) unnamed_addr #4 comdat align 2 {
  %3 = alloca ptr, align 8
  %4 = alloca ptr, align 8
  store ptr %0, ptr %3, align 8
  store ptr %1, ptr %4, align 8
  %5 = load ptr, ptr %3, align 8
  %6 = load ptr, ptr %4, align 8
  %7 = load ptr, ptr %6, align 8
  store ptr %7, ptr %5, align 8
  %8 = getelementptr inbounds ptr, ptr %6, i64 1
  %9 = load ptr, ptr %8, align 8
  %10 = load ptr, ptr %5, align 8
  %11 = getelementptr i8, ptr %10, i64 -24
  %12 = load i64, ptr %11, align 8
  %13 = getelementptr inbounds i8, ptr %5, i64 %12
  store ptr %9, ptr %13, align 8
  %14 = getelementptr inbounds ptr, ptr %6, i64 2
  %15 = load ptr, ptr %14, align 8
  %16 = load ptr, ptr %5, align 8
  %17 = getelementptr i8, ptr %16, i64 -32
  %18 = load i64, ptr %17, align 8
  %19 = getelementptr inbounds i8, ptr %5, i64 %18
  store ptr %15, ptr %19, align 8
  ret void
}

; Function Attrs: mustprogress uwtable
define linkonce_odr void @_ZN13MeshLabPluginC2Ev(ptr noundef nonnull align 8 dereferenceable(24) %0) unnamed_addr #5 comdat align 2 {
  %2 = alloca ptr, align 8
  store ptr %0, ptr %2, align 8
  %3 = load ptr, ptr %2, align 8
  store ptr getelementptr inbounds ({ [7 x ptr] }, ptr @_ZTV13MeshLabPlugin, i32 0, i32 0, i32 2), ptr %3, align 8
  %4 = getelementptr inbounds %class.MeshLabPlugin, ptr %3, i32 0, i32 1
  store i8 1, ptr %4, align 8
  %5 = getelementptr inbounds %class.MeshLabPlugin, ptr %3, i32 0, i32 2
  call void @_ZN9QFileInfoC1Ev(ptr noundef nonnull align 8 dereferenceable(8) %5)
  ret void
}

; Function Attrs: mustprogress uwtable
define void @_ZN29RadianceScalingRendererPluginC1Ev(ptr noundef nonnull align 8 dereferenceable(128) %0) unnamed_addr #5 align 2 personality ptr @__gxx_personality_v0 {
  %2 = alloca ptr, align 8
  %3 = alloca ptr, align 8
  %4 = alloca i32, align 4
  store ptr %0, ptr %2, align 8
  %5 = load ptr, ptr %2, align 8
  %6 = getelementptr inbounds i8, ptr %5, i64 128
  call void @_ZN13MeshLabPluginC2Ev(ptr noundef nonnull align 8 dereferenceable(24) %6)
  %7 = getelementptr inbounds i8, ptr %5, i64 152
  invoke void @_ZN19MeshLabPluginLoggerC2Ev(ptr noundef nonnull align 8 dereferenceable(16) %7)
          to label %8 unwind label %26

8:                                                ; preds = %1
  invoke void @_ZN7QObjectC2EPS_(ptr noundef nonnull align 8 dereferenceable(16) %5, ptr noundef null)
          to label %9 unwind label %30

9:                                                ; preds = %8
  %10 = getelementptr inbounds i8, ptr %5, i64 16
  call void @_ZN12RenderPluginC2Ev(ptr noundef nonnull align 8 dereferenceable(8) %10, ptr noundef getelementptr inbounds ([7 x ptr], ptr @_ZTT29RadianceScalingRendererPlugin, i64 0, i64 1))
  store ptr getelementptr inbounds ({ [23 x ptr], [12 x ptr], [11 x ptr], [5 x ptr] }, ptr @_ZTV29RadianceScalingRendererPlugin, i32 0, i32 0, i32 4), ptr %5, align 8
  %11 = getelementptr inbounds i8, ptr %5, i64 16
  store ptr getelementptr inbounds ({ [23 x ptr], [12 x ptr], [11 x ptr], [5 x ptr] }, ptr @_ZTV29RadianceScalingRendererPlugin, i32 0, i32 1, i32 4), ptr %11, align 8
  %12 = getelementptr inbounds i8, ptr %5, i64 128
  store ptr getelementptr inbounds ({ [23 x ptr], [12 x ptr], [11 x ptr], [5 x ptr] }, ptr @_ZTV29RadianceScalingRendererPlugin, i32 0, i32 2, i32 6), ptr %12, align 8
  %13 = getelementptr inbounds i8, ptr %5, i64 152
  store ptr getelementptr inbounds ({ [23 x ptr], [12 x ptr], [11 x ptr], [5 x ptr] }, ptr @_ZTV29RadianceScalingRendererPlugin, i32 0, i32 3, i32 3), ptr %13, align 8
  %14 = getelementptr inbounds %class.RadianceScalingRendererPlugin, ptr %5, i32 0, i32 2
  store i8 0, ptr %14, align 8
  %15 = getelementptr inbounds %class.RadianceScalingRendererPlugin, ptr %5, i32 0, i32 3
  call void @_ZN5QListIP7QActionEC2Ev(ptr noundef nonnull align 8 dereferenceable(8) %15) #3
  %16 = getelementptr inbounds %class.RadianceScalingRendererPlugin, ptr %5, i32 0, i32 4
  store ptr null, ptr %16, align 8
  %17 = getelementptr inbounds %class.RadianceScalingRendererPlugin, ptr %5, i32 0, i32 5
  store ptr null, ptr %17, align 8
  %18 = getelementptr inbounds %class.RadianceScalingRendererPlugin, ptr %5, i32 0, i32 6
  store ptr null, ptr %18, align 8
  %19 = getelementptr inbounds %class.RadianceScalingRendererPlugin, ptr %5, i32 0, i32 7
  store ptr null, ptr %19, align 8
  %20 = getelementptr inbounds %class.RadianceScalingRendererPlugin, ptr %5, i32 0, i32 8
  store ptr null, ptr %20, align 8
  %21 = getelementptr inbounds %class.RadianceScalingRendererPlugin, ptr %5, i32 0, i32 9
  store ptr null, ptr %21, align 8
  %22 = getelementptr inbounds %class.RadianceScalingRendererPlugin, ptr %5, i32 0, i32 10
  store ptr null, ptr %22, align 8
  %23 = getelementptr inbounds %class.RadianceScalingRendererPlugin, ptr %5, i32 0, i32 11
  store ptr null, ptr %23, align 8
  %24 = getelementptr inbounds %class.RadianceScalingRendererPlugin, ptr %5, i32 0, i32 12
  store ptr null, ptr %24, align 8
  %25 = getelementptr inbounds %class.RadianceScalingRendererPlugin, ptr %5, i32 0, i32 13
  store ptr null, ptr %25, align 8
  ret void

26:                                               ; preds = %1
  %27 = landingpad { ptr, i32 }
          cleanup
  %28 = extractvalue { ptr, i32 } %27, 0
  store ptr %28, ptr %3, align 8
  %29 = extractvalue { ptr, i32 } %27, 1
  store i32 %29, ptr %4, align 4
  br label %35

30:                                               ; preds = %8
  %31 = landingpad { ptr, i32 }
          cleanup
  %32 = extractvalue { ptr, i32 } %31, 0
  store ptr %32, ptr %3, align 8
  %33 = extractvalue { ptr, i32 } %31, 1
  store i32 %33, ptr %4, align 4
  %34 = getelementptr inbounds i8, ptr %5, i64 152
  call void @_ZN19MeshLabPluginLoggerD2Ev(ptr noundef nonnull align 8 dereferenceable(16) %34) #3
  br label %35

35:                                               ; preds = %30, %26
  %36 = getelementptr inbounds i8, ptr %5, i64 128
  call void @_ZN13MeshLabPluginD2Ev(ptr noundef nonnull align 8 dereferenceable(24) %36) #3
  br label %37

37:                                               ; preds = %35
  %38 = load ptr, ptr %3, align 8
  %39 = load i32, ptr %4, align 4
  %40 = insertvalue { ptr, i32 } poison, ptr %38, 0
  %41 = insertvalue { ptr, i32 } %40, i32 %39, 1
  resume { ptr, i32 } %41
}